target datalayout = "e-m:e-p270:32:32-p271:32:32-p272:64:64-i64:64-i128:128-f80:128-n8:16:32:64-S128"
target triple = "x86_64-pc-linux-gnu"

%class.Node = type <{ ptr, ptr, ptr, i32, i32, i32, i32, i32, i32, i32, [4 x i8] }>
%class.PhaseValues = type { %class.PhaseTransform, i8, ptr, ptr, [137 x ptr], [137 x ptr], [20 x ptr] }
%class.PhaseTransform = type { ptr, %class.Phase }
%class.Phase = type { i32, ptr }
%class.Node.base = type <{ ptr, ptr, ptr, i32, i32, i32, i32, i32, i32, i32 }>
%class.MultiBranchNode.base = type { %class.MultiNode.base }
%class.MultiNode.base = type { %class.Node.base }
%class.CallNode = type { %class.SafePointNode.base, ptr, ptr, float, ptr, ptr }
%class.SafePointNode.base = type <{ %class.MultiNode.base, [4 x i8], ptr, ptr, %class.ReplacedNodes, i8 }>
%class.ReplacedNodes = type { ptr }
%class.PCTableNode = type { %class.MultiBranchNode.base, i32 }
%class.TypeInt = type { %class.TypeInteger.base, i32, i32 }
%class.TypeInteger.base = type { %class.Type.base, i16 }
%class.Type.base = type <{ ptr, ptr, i32 }>
%class.Type_Array = type { ptr, i32, ptr }

@_ZN4Type7CONTROLE = external global ptr, align 8
@_ZN4Type3TOPE = external global ptr, align 8
@_ZN7TypePtr8NULL_PTRE = external global ptr, align 8
@_ZN11OptoRuntime13_rethrow_JavaE = external global ptr, align 8

; Function Attrs: mustprogress nounwind uwtable
define linkonce_odr hidden noundef zeroext i1 @_ZNK7TypeInt6is_conEv(ptr noundef nonnull align 8 dereferenceable(32) %0) #1 comdat align 2 {
  %2 = alloca ptr, align 8
  store ptr %0, ptr %2, align 8
  %3 = load ptr, ptr %2, align 8
  %4 = getelementptr inbounds %class.TypeInt, ptr %3, i32 0, i32 1
  %5 = load i32, ptr %4, align 8
  %6 = getelementptr inbounds %class.TypeInt, ptr %3, i32 0, i32 2
  %7 = load i32, ptr %6, align 4
  %8 = icmp eq i32 %5, %7
  ret i1 %8
}

; Function Attrs: mustprogress nounwind uwtable
define linkonce_odr hidden noundef ptr @_ZNK10Type_Array11fast_lookupEj(ptr noundef nonnull align 8 dereferenceable(24) %0, i32 noundef %1) #1 comdat align 2 {
  %3 = alloca ptr, align 8
  %4 = alloca i32, align 4
  store ptr %0, ptr %3, align 8
  store i32 %1, ptr %4, align 4
  %5 = load ptr, ptr %3, align 8
  %6 = getelementptr inbounds %class.Type_Array, ptr %5, i32 0, i32 2
  %7 = load ptr, ptr %6, align 8
  %8 = load i32, ptr %4, align 4
  %9 = zext i32 %8 to i64
  %10 = getelementptr inbounds ptr, ptr %7, i64 %9
  %11 = load ptr, ptr %10, align 8
  ret ptr %11
}

; Function Attrs: mustprogress nounwind uwtable
define linkonce_odr hidden noundef zeroext i1 @_ZNK4Node18is_CallDynamicJavaEv(ptr noundef nonnull align 8 dereferenceable(52) %0) #1 comdat align 2 {
  %2 = alloca ptr, align 8
  store ptr %0, ptr %2, align 8
  %3 = load ptr, ptr %2, align 8
  %4 = getelementptr inbounds %class.Node, ptr %3, i32 0, i32 8
  %5 = load i32, ptr %4, align 4
  %6 = and i32 %5, 63
  %7 = icmp eq i32 %6, 47
  ret i1 %7
}

; Function Attrs: mustprogress nounwind uwtable
define linkonce_odr hidden noundef i32 @_ZNK4Node3reqEv(ptr noundef nonnull align 8 dereferenceable(52) %0) #1 comdat align 2 {
  %2 = alloca ptr, align 8
  store ptr %0, ptr %2, align 8
  %3 = load ptr, ptr %2, align 8
  %4 = getelementptr inbounds %class.Node, ptr %3, i32 0, i32 3
  %5 = load i32, ptr %4, align 8
  ret i32 %5
}

; Function Attrs: mustprogress nounwind uwtable
define linkonce_odr hidden noundef zeroext i1 @_ZNK7TypeInt6is_conEi(ptr noundef nonnull align 8 dereferenceable(32) %0, i32 noundef %1) #1 comdat align 2 {
  %3 = alloca ptr, align 8
  %4 = alloca i32, align 4
  store ptr %0, ptr %3, align 8
  store i32 %1, ptr %4, align 4
  %5 = load ptr, ptr %3, align 8
  %6 = call noundef zeroext i1 @_ZNK7TypeInt6is_conEv(ptr noundef nonnull align 8 dereferenceable(32) %5)
  br i1 %6, label %7, label %12

7:                                                ; preds = %2
  %8 = getelementptr inbounds %class.TypeInt, ptr %5, i32 0, i32 1
  %9 = load i32, ptr %8, align 8
  %10 = load i32, ptr %4, align 4
  %11 = icmp eq i32 %9, %10
  br label %12

12:                                               ; preds = %7, %2
  %13 = phi i1 [ false, %2 ], [ %11, %7 ]
  ret i1 %13
}

; Function Attrs: mustprogress nounwind uwtable
define linkonce_odr hidden noundef ptr @_ZNK4Type6is_intEv(ptr noundef nonnull align 8 dereferenceable(20) %0) #1 comdat align 2 {
  %2 = alloca ptr, align 8
  store ptr %0, ptr %2, align 8
  %3 = load ptr, ptr %2, align 8
  ret ptr %3
}

; Function Attrs: mustprogress nounwind uwtable
define linkonce_odr hidden noundef zeroext i1 @_ZNK4Node16is_AllocateArrayEv(ptr noundef nonnull align 8 dereferenceable(52) %0) #1 comdat align 2 {
  %2 = alloca ptr, align 8
  store ptr %0, ptr %2, align 8
  %3 = load ptr, ptr %2, align 8
  %4 = getelementptr inbounds %class.Node, ptr %3, i32 0, i32 8
  %5 = load i32, ptr %4, align 4
  %6 = and i32 %5, 127
  %7 = icmp eq i32 %6, 103
  ret i1 %7
}

; Function Attrs: mustprogress nounwind uwtable
define linkonce_odr hidden noundef ptr @_ZN11OptoRuntime12rethrow_stubEv() #1 comdat align 2 {
  %1 = load ptr, ptr @_ZN11OptoRuntime13_rethrow_JavaE, align 8
  ret ptr %1
}

; Function Attrs: mustprogress nounwind uwtable
define linkonce_odr hidden noundef ptr @_ZNK8CallNode11entry_pointEv(ptr noundef nonnull align 8 dereferenceable(128) %0) #1 comdat align 2 {
  %2 = alloca ptr, align 8
  store ptr %0, ptr %2, align 8
  %3 = load ptr, ptr %2, align 8
  %4 = getelementptr inbounds %class.CallNode, ptr %3, i32 0, i32 2
  %5 = load ptr, ptr %4, align 8
  ret ptr %5
}

; Function Attrs: mustprogress nounwind uwtable
define linkonce_odr hidden noundef ptr @_ZNK4Node7as_CallEv(ptr noundef nonnull align 8 dereferenceable(52) %0) #1 comdat align 2 {
  %2 = alloca ptr, align 8
  store ptr %0, ptr %2, align 8
  %3 = load ptr, ptr %2, align 8
  ret ptr %3
}

; Function Attrs: mustprogress nounwind uwtable
define linkonce_odr hidden noundef zeroext i1 @_ZNK4Node7is_CallEv(ptr noundef nonnull align 8 dereferenceable(52) %0) #1 comdat align 2 {
  %2 = alloca ptr, align 8
  store ptr %0, ptr %2, align 8
  %3 = load ptr, ptr %2, align 8
  %4 = getelementptr inbounds %class.Node, ptr %3, i32 0, i32 8
  %5 = load i32, ptr %4, align 4
  %6 = and i32 %5, 7
  %7 = icmp eq i32 %6, 7
  ret i1 %7
}

; Function Attrs: mustprogress nounwind uwtable
define linkonce_odr hidden noundef zeroext i1 @_ZNK4Node7is_ProjEv(ptr noundef nonnull align 8 dereferenceable(52) %0) #1 comdat align 2 {
  %2 = alloca ptr, align 8
  store ptr %0, ptr %2, align 8
  %3 = load ptr, ptr %2, align 8
  %4 = getelementptr inbounds %class.Node, ptr %3, i32 0, i32 8
  %5 = load i32, ptr %4, align 4
  %6 = and i32 %5, 15
  %7 = icmp eq i32 %6, 8
  ret i1 %7
}

; Function Attrs: mustprogress nounwind uwtable
define linkonce_odr hidden noundef ptr @_ZNK11PhaseValues4typeEPK4Node(ptr noundef nonnull align 8 dereferenceable(2400) %0, ptr noundef %1) #1 comdat align 2 {
  %3 = alloca ptr, align 8
  %4 = alloca ptr, align 8
  %5 = alloca ptr, align 8
  store ptr %0, ptr %3, align 8
  store ptr %1, ptr %4, align 8
  %6 = load ptr, ptr %3, align 8
  %7 = getelementptr inbounds %class.PhaseValues, ptr %6, i32 0, i32 3
  %8 = load ptr, ptr %7, align 8
  %9 = load ptr, ptr %4, align 8
  %10 = getelementptr inbounds %class.Node, ptr %9, i32 0, i32 7
  %11 = load i32, ptr %10, align 8
  %12 = call noundef ptr @_ZNK10Type_Array11fast_lookupEj(ptr noundef nonnull align 8 dereferenceable(24) %8, i32 noundef %11)
  store ptr %12, ptr %5, align 8
  %13 = load ptr, ptr %5, align 8
  ret ptr %13
}

; Function Attrs: mustprogress nounwind uwtable
define linkonce_odr hidden noundef ptr @_ZNK4Node2inEj(ptr noundef nonnull align 8 dereferenceable(52) %0, i32 noundef %1) #1 comdat align 2 {
  %3 = alloca ptr, align 8
  %4 = alloca i32, align 4
  store ptr %0, ptr %3, align 8
  store i32 %1, ptr %4, align 4
  %5 = load ptr, ptr %3, align 8
  %6 = getelementptr inbounds %class.Node, ptr %5, i32 0, i32 1
  %7 = load ptr, ptr %6, align 8
  %8 = load i32, ptr %4, align 4
  %9 = zext i32 %8 to i64
  %10 = getelementptr inbounds ptr, ptr %7, i64 %9
  %11 = load ptr, ptr %10, align 8
  ret ptr %11
}

; Function Attrs: mustprogress nounwind uwtable
define hidden noundef ptr @_ZNK9CatchNode5ValueEP8PhaseGVN(ptr noundef nonnull align 8 dereferenceable(56) %0, ptr noundef %1) unnamed_addr #1 align 2 {
  %3 = alloca ptr, align 8
  %4 = alloca ptr, align 8
  %5 = alloca ptr, align 8
  %6 = alloca ptr, align 8
  %7 = alloca i32, align 4
  %8 = alloca ptr, align 8
  %9 = alloca ptr, align 8
  %10 = alloca ptr, align 8
  %11 = alloca ptr, align 8
  %12 = alloca ptr, align 8
  %13 = alloca ptr, align 8
  %14 = alloca ptr, align 8
  %15 = alloca ptr, align 8
  %16 = alloca ptr, align 8
  store ptr %0, ptr %4, align 8
  store ptr %1, ptr %5, align 8
  %17 = load ptr, ptr %4, align 8
  %18 = load ptr, ptr %5, align 8
  %19 = call noundef ptr @_ZNK4Node2inEj(ptr noundef nonnull align 8 dereferenceable(52) %17, i32 noundef 0)
  %20 = call noundef ptr @_ZNK11PhaseValues4typeEPK4Node(ptr noundef nonnull align 8 dereferenceable(2400) %18, ptr noundef %19)
  %21 = load ptr, ptr @_ZN4Type3TOPE, align 8
  %22 = icmp eq ptr %20, %21
  br i1 %22, label %23, label %25

23:                                               ; preds = %2
  %24 = load ptr, ptr @_ZN4Type3TOPE, align 8
  store ptr %24, ptr %3, align 8
  br label %130

25:                                               ; preds = %2
  %26 = getelementptr inbounds %class.PCTableNode, ptr %17, i32 0, i32 1
  %27 = load i32, ptr %26, align 4
  %28 = call noundef ptr @_ZN9TypeTuple6fieldsEj(i32 noundef %27)
  store ptr %28, ptr %6, align 8
  store i32 0, ptr %7, align 4
  br label %29

29:                                               ; preds = %40, %25
  %30 = load i32, ptr %7, align 4
  %31 = getelementptr inbounds %class.PCTableNode, ptr %17, i32 0, i32 1
  %32 = load i32, ptr %31, align 4
  %33 = icmp ult i32 %30, %32
  br i1 %33, label %34, label %43

34:                                               ; preds = %29
  %35 = load ptr, ptr @_ZN4Type7CONTROLE, align 8
  %36 = load ptr, ptr %6, align 8
  %37 = load i32, ptr %7, align 4
  %38 = zext i32 %37 to i64
  %39 = getelementptr inbounds ptr, ptr %36, i64 %38
  store ptr %35, ptr %39, align 8
  br label %40

40:                                               ; preds = %34
  %41 = load i32, ptr %7, align 4
  %42 = add i32 %41, 1
  store i32 %42, ptr %7, align 4
  br label %29, !llvm.loop !75

43:                                               ; preds = %29
  %44 = call noundef ptr @_ZNK4Node2inEj(ptr noundef nonnull align 8 dereferenceable(52) %17, i32 noundef 1)
  %45 = call noundef zeroext i1 @_ZNK4Node7is_ProjEv(ptr noundef nonnull align 8 dereferenceable(52) %44)
  br i1 %45, label %46, label %125

46:                                               ; preds = %43
  %47 = call noundef ptr @_ZNK4Node2inEj(ptr noundef nonnull align 8 dereferenceable(52) %17, i32 noundef 1)
  %48 = call noundef ptr @_ZNK4Node2inEj(ptr noundef nonnull align 8 dereferenceable(52) %47, i32 noundef 0)
  store ptr %48, ptr %8, align 8
  %49 = load ptr, ptr %8, align 8
  %50 = call noundef zeroext i1 @_ZNK4Node7is_CallEv(ptr noundef nonnull align 8 dereferenceable(52) %49)
  br i1 %50, label %51, label %124

51:                                               ; preds = %46
  %52 = load ptr, ptr %8, align 8
  %53 = call noundef ptr @_ZNK4Node7as_CallEv(ptr noundef nonnull align 8 dereferenceable(52) %52)
  store ptr %53, ptr %9, align 8
  %54 = load ptr, ptr %9, align 8
  %55 = call noundef ptr @_ZNK8CallNode11entry_pointEv(ptr noundef nonnull align 8 dereferenceable(128) %54)
  %56 = call noundef ptr @_ZN11OptoRuntime12rethrow_stubEv()
  %57 = icmp eq ptr %55, %56
  br i1 %57, label %58, label %62

58:                                               ; preds = %51
  %59 = load ptr, ptr @_ZN4Type3TOPE, align 8
  %60 = load ptr, ptr %6, align 8
  %61 = getelementptr inbounds ptr, ptr %60, i64 0
  store ptr %59, ptr %61, align 8
  br label %123

62:                                               ; preds = %51
  %63 = load ptr, ptr %9, align 8
  %64 = call noundef zeroext i1 @_ZNK4Node16is_AllocateArrayEv(ptr noundef nonnull align 8 dereferenceable(52) %63)
  br i1 %64, label %65, label %101

65:                                               ; preds = %62
  %66 = load ptr, ptr %9, align 8
  %67 = call noundef ptr @_ZNK4Node2inEj(ptr noundef nonnull align 8 dereferenceable(52) %66, i32 noundef 6)
  store ptr %67, ptr %10, align 8
  %68 = load ptr, ptr %9, align 8
  %69 = call noundef ptr @_ZNK4Node2inEj(ptr noundef nonnull align 8 dereferenceable(52) %68, i32 noundef 8)
  store ptr %69, ptr %11, align 8
  %70 = load ptr, ptr %5, align 8
  %71 = load ptr, ptr %11, align 8
  %72 = call noundef ptr @_ZNK11PhaseValues4typeEPK4Node(ptr noundef nonnull align 8 dereferenceable(2400) %70, ptr noundef %71)
  store ptr %72, ptr %12, align 8
  %73 = load ptr, ptr %5, align 8
  %74 = load ptr, ptr %10, align 8
  %75 = call noundef ptr @_ZNK11PhaseValues4typeEPK4Node(ptr noundef nonnull align 8 dereferenceable(2400) %73, ptr noundef %74)
  store ptr %75, ptr %13, align 8
  %76 = load ptr, ptr %9, align 8
  %77 = call noundef ptr @_ZNK4Node2inEj(ptr noundef nonnull align 8 dereferenceable(52) %76, i32 noundef 9)
  store ptr %77, ptr %14, align 8
  %78 = load ptr, ptr %5, align 8
  %79 = load ptr, ptr %14, align 8
  %80 = call noundef ptr @_ZNK11PhaseValues4typeEPK4Node(ptr noundef nonnull align 8 dereferenceable(2400) %78, ptr noundef %79)
  store ptr %80, ptr %15, align 8
  %81 = load ptr, ptr %12, align 8
  %82 = load ptr, ptr @_ZN4Type3TOPE, align 8
  %83 = icmp eq ptr %81, %82
  br i1 %83, label %96, label %84

84:                                               ; preds = %65
  %85 = load ptr, ptr %13, align 8
  %86 = load ptr, ptr @_ZN4Type3TOPE, align 8
  %87 = icmp eq ptr %85, %86
  br i1 %87, label %96, label %88

88:                                               ; preds = %84
  %89 = load ptr, ptr %15, align 8
  %90 = load ptr, ptr @_ZN4Type3TOPE, align 8
  %91 = icmp eq ptr %89, %90
  br i1 %91, label %96, label %92

92:                                               ; preds = %88
  %93 = load ptr, ptr %15, align 8
  %94 = call noundef ptr @_ZNK4Type6is_intEv(ptr noundef nonnull align 8 dereferenceable(20) %93)
  %95 = call noundef zeroext i1 @_ZNK7TypeInt6is_conEi(ptr noundef nonnull align 8 dereferenceable(32) %94, i32 noundef 0)
  br i1 %95, label %96, label %100

96:                                               ; preds = %92, %88, %84, %65
  %97 = load ptr, ptr @_ZN4Type3TOPE, align 8
  %98 = load ptr, ptr %6, align 8
  %99 = getelementptr inbounds ptr, ptr %98, i64 0
  store ptr %97, ptr %99, align 8
  br label %100

100:                                              ; preds = %96, %92
  br label %122

101:                                              ; preds = %62
  %102 = load ptr, ptr %9, align 8
  %103 = call noundef i32 @_ZNK4Node3reqEv(ptr noundef nonnull align 8 dereferenceable(52) %102)
  %104 = icmp ugt i32 %103, 5
  br i1 %104, label %105, label %121

105:                                              ; preds = %101
  %106 = load ptr, ptr %5, align 8
  %107 = load ptr, ptr %9, align 8
  %108 = call noundef ptr @_ZNK4Node2inEj(ptr noundef nonnull align 8 dereferenceable(52) %107, i32 noundef 5)
  %109 = call noundef ptr @_ZNK11PhaseValues4typeEPK4Node(ptr noundef nonnull align 8 dereferenceable(2400) %106, ptr noundef %108)
  store ptr %109, ptr %16, align 8
  %110 = load ptr, ptr %9, align 8
  %111 = call noundef zeroext i1 @_ZNK4Node18is_CallDynamicJavaEv(ptr noundef nonnull align 8 dereferenceable(52) %110)
  br i1 %111, label %112, label %120

112:                                              ; preds = %105
  %113 = load ptr, ptr %16, align 8
  %114 = load ptr, ptr @_ZN7TypePtr8NULL_PTRE, align 8
  %115 = call noundef zeroext i1 @_ZNK4Type12higher_equalEPKS_(ptr noundef nonnull align 8 dereferenceable(20) %113, ptr noundef %114)
  br i1 %115, label %116, label %120

116:                                              ; preds = %112
  %117 = load ptr, ptr @_ZN4Type3TOPE, align 8
  %118 = load ptr, ptr %6, align 8
  %119 = getelementptr inbounds ptr, ptr %118, i64 0
  store ptr %117, ptr %119, align 8
  br label %120

120:                                              ; preds = %116, %112, %105
  br label %121

121:                                              ; preds = %120, %101
  br label %122

122:                                              ; preds = %121, %100
  br label %123

123:                                              ; preds = %122, %58
  br label %124

124:                                              ; preds = %123, %46
  br label %125

125:                                              ; preds = %124, %43
  %126 = getelementptr inbounds %class.PCTableNode, ptr %17, i32 0, i32 1
  %127 = load i32, ptr %126, align 4
  %128 = load ptr, ptr %6, align 8
  %129 = call noundef ptr @_ZN9TypeTuple4makeEjPPK4Type(i32 noundef %127, ptr noundef %128)
  store ptr %129, ptr %3, align 8
  br label %130

130:                                              ; preds = %125, %23
  %131 = load ptr, ptr %3, align 8
  ret ptr %131
}