; Function Attrs: mustprogress nounwind uwtable
define hidden noundef ptr @_ZNK9CatchNode5ValueEP8PhaseGVN(ptr nocapture noundef nonnull readonly align 8 dereferenceable(56) %0, ptr nocapture noundef readonly %1) unnamed_addr #2 align 2 {
  %3 = getelementptr inbounds i8, ptr %0, i64 8
  %4 = load ptr, ptr %3, align 8
  %5 = load ptr, ptr %4, align 8
  %6 = getelementptr inbounds i8, ptr %1, i64 40
  %7 = load ptr, ptr %6, align 8
  %8 = getelementptr inbounds i8, ptr %5, i64 40
  %9 = load i32, ptr %8, align 8
  %10 = getelementptr inbounds i8, ptr %7, i64 16
  %11 = load ptr, ptr %10, align 8
  %12 = zext i32 %9 to i64
  %13 = getelementptr inbounds ptr, ptr %11, i64 %12
  %14 = load ptr, ptr %13, align 8
  %15 = load ptr, ptr @_ZN4Type3TOPE, align 8
  %16 = icmp eq ptr %14, %15
  br i1 %16, label %115, label %17

17:                                               ; preds = %2
  %18 = getelementptr inbounds i8, ptr %0, i64 52
  %19 = load i32, ptr %18, align 4
  %20 = tail call noundef ptr @_ZN9TypeTuple6fieldsEj(i32 noundef %19) #10
  %21 = load i32, ptr %18, align 4
  %.not = icmp eq i32 %21, 0
  br i1 %.not, label %._crit_edge, label %.lr.ph.preheader

.lr.ph.preheader:                                 ; preds = %17
  %.pre = load ptr, ptr @_ZN4Type7CONTROLE, align 8
  br label %.lr.ph

.lr.ph:                                           ; preds = %.lr.ph.preheader, %.lr.ph
  %indvars.iv = phi i64 [ 0, %.lr.ph.preheader ], [ %indvars.iv.next, %.lr.ph ]
  %22 = getelementptr inbounds ptr, ptr %20, i64 %indvars.iv
  store ptr %.pre, ptr %22, align 8
  %indvars.iv.next = add nuw nsw i64 %indvars.iv, 1
  %23 = load i32, ptr %18, align 4
  %24 = zext i32 %23 to i64
  %25 = icmp ult i64 %indvars.iv.next, %24
  br i1 %25, label %.lr.ph, label %._crit_edge, !llvm.loop !80

._crit_edge:                                      ; preds = %.lr.ph, %17
  %26 = load ptr, ptr %3, align 8
  %27 = getelementptr inbounds i8, ptr %26, i64 8
  %28 = load ptr, ptr %27, align 8
  %29 = getelementptr inbounds i8, ptr %28, i64 44
  %30 = load i32, ptr %29, align 4
  %31 = and i32 %30, 15
  %32 = icmp eq i32 %31, 8
  br i1 %32, label %33, label %112

33:                                               ; preds = %._crit_edge
  %34 = getelementptr inbounds i8, ptr %28, i64 8
  %35 = load ptr, ptr %34, align 8
  %36 = load ptr, ptr %35, align 8
  %37 = getelementptr inbounds i8, ptr %36, i64 44
  %38 = load i32, ptr %37, align 4
  %39 = and i32 %38, 7
  %40 = icmp eq i32 %39, 7
  br i1 %40, label %41, label %112

41:                                               ; preds = %33
  %42 = getelementptr inbounds i8, ptr %36, i64 96
  %43 = load ptr, ptr %42, align 8
  %44 = load ptr, ptr @_ZN11OptoRuntime13_rethrow_JavaE, align 8
  %45 = icmp eq ptr %43, %44
  br i1 %45, label %46, label %48

46:                                               ; preds = %41
  %47 = load ptr, ptr @_ZN4Type3TOPE, align 8
  br label %.sink.split

48:                                               ; preds = %41
  %49 = and i32 %38, 127
  %50 = icmp eq i32 %49, 103
  br i1 %50, label %51, label %89

51:                                               ; preds = %48
  %52 = getelementptr inbounds i8, ptr %36, i64 8
  %53 = load ptr, ptr %52, align 8
  %54 = getelementptr inbounds i8, ptr %53, i64 48
  %55 = load ptr, ptr %54, align 8
  %56 = getelementptr inbounds i8, ptr %53, i64 64
  %57 = load ptr, ptr %56, align 8
  %58 = load ptr, ptr %6, align 8
  %59 = getelementptr inbounds i8, ptr %57, i64 40
  %60 = load i32, ptr %59, align 8
  %61 = getelementptr inbounds i8, ptr %58, i64 16
  %62 = load ptr, ptr %61, align 8
  %63 = zext i32 %60 to i64
  %64 = getelementptr inbounds ptr, ptr %62, i64 %63
  %65 = load ptr, ptr %64, align 8
  %66 = getelementptr inbounds i8, ptr %55, i64 40
  %67 = load i32, ptr %66, align 8
  %68 = zext i32 %67 to i64
  %69 = getelementptr inbounds ptr, ptr %62, i64 %68
  %70 = load ptr, ptr %69, align 8
  %71 = getelementptr inbounds i8, ptr %53, i64 72
  %72 = load ptr, ptr %71, align 8
  %73 = getelementptr inbounds i8, ptr %72, i64 40
  %74 = load i32, ptr %73, align 8
  %75 = zext i32 %74 to i64
  %76 = getelementptr inbounds ptr, ptr %62, i64 %75
  %77 = load ptr, ptr %76, align 8
  %78 = load ptr, ptr @_ZN4Type3TOPE, align 8
  %79 = icmp eq ptr %65, %78
  %80 = icmp eq ptr %70, %78
  %or.cond = or i1 %79, %80
  %81 = icmp eq ptr %77, %78
  %or.cond36 = or i1 %81, %or.cond
  br i1 %or.cond36, label %.sink.split, label %82

82:                                               ; preds = %51
  %83 = getelementptr inbounds i8, ptr %77, i64 24
  %84 = load i32, ptr %83, align 8
  %85 = getelementptr inbounds i8, ptr %77, i64 28
  %86 = load i32, ptr %85, align 4
  %87 = or i32 %86, %84
  %88 = icmp eq i32 %87, 0
  br i1 %88, label %.sink.split, label %112

89:                                               ; preds = %48
  %90 = getelementptr inbounds i8, ptr %36, i64 24
  %91 = load i32, ptr %90, align 8
  %92 = icmp ugt i32 %91, 5
  %93 = and i32 %38, 63
  %94 = icmp eq i32 %93, 47
  %or.cond38 = and i1 %94, %92
  br i1 %or.cond38, label %95, label %112

95:                                               ; preds = %89
  %96 = load ptr, ptr %6, align 8
  %97 = getelementptr inbounds i8, ptr %96, i64 16
  %98 = load ptr, ptr %97, align 8
  %99 = getelementptr inbounds i8, ptr %36, i64 8
  %100 = load ptr, ptr %99, align 8
  %101 = getelementptr inbounds i8, ptr %100, i64 40
  %102 = load ptr, ptr %101, align 8
  %103 = getelementptr inbounds i8, ptr %102, i64 40
  %104 = load i32, ptr %103, align 8
  %105 = zext i32 %104 to i64
  %106 = getelementptr inbounds ptr, ptr %98, i64 %105
  %107 = load ptr, ptr %106, align 8
  %108 = load ptr, ptr @_ZN7TypePtr8NULL_PTRE, align 8
  %109 = tail call noundef zeroext i1 @_ZNK4Type12higher_equalEPKS_(ptr noundef nonnull align 8 dereferenceable(20) %107, ptr noundef %108)
  br i1 %109, label %110, label %112

110:                                              ; preds = %95
  %111 = load ptr, ptr @_ZN4Type3TOPE, align 8
  br label %.sink.split

.sink.split:                                      ; preds = %51, %82, %46, %110
  %.sink = phi ptr [ %111, %110 ], [ %47, %46 ], [ %78, %82 ], [ %78, %51 ]
  store ptr %.sink, ptr %20, align 8
  br label %112

112:                                              ; preds = %.sink.split, %33, %82, %95, %89, %._crit_edge
  %113 = load i32, ptr %18, align 4
  %114 = tail call noundef ptr @_ZN9TypeTuple4makeEjPPK4Type(i32 noundef %113, ptr noundef %20) #10
  br label %115

115:                                              ; preds = %2, %112
  %.0 = phi ptr [ %114, %112 ], [ %15, %2 ]
  ret ptr %.0
}